target datalayout = "e-m:e-p270:32:32-p271:32:32-p272:64:64-i64:64-i128:128-f80:128-n8:16:32:64-S128"
target triple = "x86_64-pc-linux-gnu"

%struct.test_fixture = type { ptr, ptr, ptr, i32, i32, ptr }

@server_cert = internal global ptr null, align 8
@server_key = internal global ptr null, align 8
@client_cert = internal global ptr null, align 8
@client_key = internal global ptr null, align 8
@libctx = internal global ptr null, align 8
@.str.14 = private unnamed_addr constant [34 x i8] c"../openssl/test/cmp_client_test.c\00", align 1
@ref = internal global [15 x i8] zeroinitializer, align 1
@.str.55 = private unnamed_addr constant [43 x i8] c"fixture = OPENSSL_zalloc(sizeof(*fixture))\00", align 1
@.str.56 = private unnamed_addr constant [55 x i8] c"fixture->srv_ctx = ossl_cmp_mock_srv_new(libctx, NULL)\00", align 1
@.str.57 = private unnamed_addr constant [56 x i8] c"fixture->cmp_ctx = ctx = OSSL_CMP_CTX_new(libctx, NULL)\00", align 1

; Function Attrs: inlinehint nounwind uwtable
define internal ptr @ossl_check_X509_sk_type(ptr noundef %0) #3 {
  %2 = alloca ptr, align 8
  store ptr %0, ptr %2, align 8, !tbaa !32
  %3 = load ptr, ptr %2, align 8, !tbaa !32
  ret ptr %3
}

; Function Attrs: nounwind uwtable
define internal void @tear_down(ptr noundef %0) #0 {
  %2 = alloca ptr, align 8
  store ptr %0, ptr %2, align 8, !tbaa !17
  %3 = load ptr, ptr %2, align 8, !tbaa !17
  %4 = getelementptr inbounds nuw %struct.test_fixture, ptr %3, i32 0, i32 1
  %5 = load ptr, ptr %4, align 8, !tbaa !29
  call void @OSSL_CMP_CTX_free(ptr noundef %5)
  %6 = load ptr, ptr %2, align 8, !tbaa !17
  %7 = getelementptr inbounds nuw %struct.test_fixture, ptr %6, i32 0, i32 2
  %8 = load ptr, ptr %7, align 8, !tbaa !21
  call void @ossl_cmp_mock_srv_free(ptr noundef %8)
  %9 = load ptr, ptr %2, align 8, !tbaa !17
  %10 = getelementptr inbounds nuw %struct.test_fixture, ptr %9, i32 0, i32 5
  %11 = load ptr, ptr %10, align 8, !tbaa !28
  %12 = call ptr @ossl_check_X509_sk_type(ptr noundef %11)
  call void @OPENSSL_sk_free(ptr noundef %12)
  %13 = load ptr, ptr %2, align 8, !tbaa !17
  call void @CRYPTO_free(ptr noundef %13, ptr noundef @.str.14, i32 noundef 51)
  ret void
}

; Function Attrs: nounwind uwtable
define internal ptr @set_up(ptr noundef %0) #0 {
  %2 = alloca ptr, align 8
  %3 = alloca ptr, align 8
  %4 = alloca ptr, align 8
  %5 = alloca ptr, align 8
  %6 = alloca ptr, align 8
  %7 = alloca i32, align 4
  store ptr %0, ptr %3, align 8, !tbaa !15
  call void @llvm.lifetime.start.p0(i64 8, ptr %4) #4
  call void @llvm.lifetime.start.p0(i64 8, ptr %5) #4
  store ptr null, ptr %5, align 8, !tbaa !30
  call void @llvm.lifetime.start.p0(i64 8, ptr %6) #4
  store ptr null, ptr %6, align 8, !tbaa !30
  %8 = call noalias ptr @CRYPTO_zalloc(i64 noundef 40, ptr noundef @.str.14, i32 noundef 60)
  store ptr %8, ptr %4, align 8, !tbaa !17
  %9 = call i32 @test_ptr(ptr noundef @.str.14, i32 noundef 60, ptr noundef @.str.55, ptr noundef %8)
  %10 = icmp ne i32 %9, 0
  br i1 %10, label %12, label %11

11:                                               ; preds = %1
  store ptr null, ptr %2, align 8
  store i32 1, ptr %7, align 4
  br label %117

12:                                               ; preds = %1
  %13 = load ptr, ptr %3, align 8, !tbaa !15
  %14 = load ptr, ptr %4, align 8, !tbaa !17
  %15 = getelementptr inbounds nuw %struct.test_fixture, ptr %14, i32 0, i32 0
  store ptr %13, ptr %15, align 8, !tbaa !31
  %16 = load ptr, ptr @libctx, align 8, !tbaa !13
  %17 = call ptr @ossl_cmp_mock_srv_new(ptr noundef %16, ptr noundef null)
  %18 = load ptr, ptr %4, align 8, !tbaa !17
  %19 = getelementptr inbounds nuw %struct.test_fixture, ptr %18, i32 0, i32 2
  store ptr %17, ptr %19, align 8, !tbaa !21
  %20 = call i32 @test_ptr(ptr noundef @.str.14, i32 noundef 63, ptr noundef @.str.56, ptr noundef %17)
  %21 = icmp ne i32 %20, 0
  br i1 %21, label %22, label %58

22:                                               ; preds = %12
  %23 = load ptr, ptr %4, align 8, !tbaa !17
  %24 = getelementptr inbounds nuw %struct.test_fixture, ptr %23, i32 0, i32 2
  %25 = load ptr, ptr %24, align 8, !tbaa !21
  %26 = call i32 @OSSL_CMP_SRV_CTX_set_accept_unprotected(ptr noundef %25, i32 noundef 1)
  %27 = icmp ne i32 %26, 0
  br i1 %27, label %28, label %58

28:                                               ; preds = %22
  %29 = load ptr, ptr %4, align 8, !tbaa !17
  %30 = getelementptr inbounds nuw %struct.test_fixture, ptr %29, i32 0, i32 2
  %31 = load ptr, ptr %30, align 8, !tbaa !21
  %32 = load ptr, ptr @client_cert, align 8, !tbaa !4
  %33 = call i32 @ossl_cmp_mock_srv_set1_refCert(ptr noundef %31, ptr noundef %32)
  %34 = icmp ne i32 %33, 0
  br i1 %34, label %35, label %58

35:                                               ; preds = %28
  %36 = load ptr, ptr %4, align 8, !tbaa !17
  %37 = getelementptr inbounds nuw %struct.test_fixture, ptr %36, i32 0, i32 2
  %38 = load ptr, ptr %37, align 8, !tbaa !21
  %39 = load ptr, ptr @client_cert, align 8, !tbaa !4
  %40 = call i32 @ossl_cmp_mock_srv_set1_certOut(ptr noundef %38, ptr noundef %39)
  %41 = icmp ne i32 %40, 0
  br i1 %41, label %42, label %58

42:                                               ; preds = %35
  %43 = load ptr, ptr %4, align 8, !tbaa !17
  %44 = getelementptr inbounds nuw %struct.test_fixture, ptr %43, i32 0, i32 2
  %45 = load ptr, ptr %44, align 8, !tbaa !21
  %46 = call ptr @OSSL_CMP_SRV_CTX_get0_cmp_ctx(ptr noundef %45)
  store ptr %46, ptr %5, align 8, !tbaa !30
  %47 = icmp eq ptr %46, null
  br i1 %47, label %58, label %48

48:                                               ; preds = %42
  %49 = load ptr, ptr %5, align 8, !tbaa !30
  %50 = load ptr, ptr @server_cert, align 8, !tbaa !4
  %51 = call i32 @OSSL_CMP_CTX_set1_cert(ptr noundef %49, ptr noundef %50)
  %52 = icmp ne i32 %51, 0
  br i1 %52, label %53, label %58

53:                                               ; preds = %48
  %54 = load ptr, ptr %5, align 8, !tbaa !30
  %55 = load ptr, ptr @server_key, align 8, !tbaa !9
  %56 = call i32 @OSSL_CMP_CTX_set1_pkey(ptr noundef %54, ptr noundef %55)
  %57 = icmp ne i32 %56, 0
  br i1 %57, label %59, label %58

58:                                               ; preds = %53, %48, %42, %35, %28, %22, %12
  br label %115

59:                                               ; preds = %53
  %60 = load ptr, ptr @libctx, align 8, !tbaa !13
  %61 = call ptr @OSSL_CMP_CTX_new(ptr noundef %60, ptr noundef null)
  store ptr %61, ptr %6, align 8, !tbaa !30
  %62 = load ptr, ptr %4, align 8, !tbaa !17
  %63 = getelementptr inbounds nuw %struct.test_fixture, ptr %62, i32 0, i32 1
  store ptr %61, ptr %63, align 8, !tbaa !29
  %64 = call i32 @test_ptr(ptr noundef @.str.14, i32 noundef 72, ptr noundef @.str.57, ptr noundef %61)
  %65 = icmp ne i32 %64, 0
  br i1 %65, label %66, label %110

66:                                               ; preds = %59
  %67 = load ptr, ptr %4, align 8, !tbaa !17
  %68 = getelementptr inbounds nuw %struct.test_fixture, ptr %67, i32 0, i32 1
  %69 = load ptr, ptr %68, align 8, !tbaa !29
  %70 = call i32 @OSSL_CMP_CTX_set_log_cb(ptr noundef %69, ptr noundef @print_to_bio_out)
  %71 = icmp ne i32 %70, 0
  br i1 %71, label %72, label %110

72:                                               ; preds = %66
  %73 = load ptr, ptr %6, align 8, !tbaa !30
  %74 = call i32 @OSSL_CMP_CTX_set_transfer_cb(ptr noundef %73, ptr noundef @OSSL_CMP_CTX_server_perform)
  %75 = icmp ne i32 %74, 0
  br i1 %75, label %76, label %110

76:                                               ; preds = %72
  %77 = load ptr, ptr %6, align 8, !tbaa !30
  %78 = load ptr, ptr %4, align 8, !tbaa !17
  %79 = getelementptr inbounds nuw %struct.test_fixture, ptr %78, i32 0, i32 2
  %80 = load ptr, ptr %79, align 8, !tbaa !21
  %81 = call i32 @OSSL_CMP_CTX_set_transfer_cb_arg(ptr noundef %77, ptr noundef %80)
  %82 = icmp ne i32 %81, 0
  br i1 %82, label %83, label %110

83:                                               ; preds = %76
  %84 = load ptr, ptr %6, align 8, !tbaa !30
  %85 = call i32 @OSSL_CMP_CTX_set_option(ptr noundef %84, i32 noundef 30, i32 noundef 1)
  %86 = icmp ne i32 %85, 0
  br i1 %86, label %87, label %110

87:                                               ; preds = %83
  %88 = load ptr, ptr %6, align 8, !tbaa !30
  %89 = call i32 @OSSL_CMP_CTX_set_option(ptr noundef %88, i32 noundef 31, i32 noundef 1)
  %90 = icmp ne i32 %89, 0
  br i1 %90, label %91, label %110

91:                                               ; preds = %87
  %92 = load ptr, ptr %6, align 8, !tbaa !30
  %93 = load ptr, ptr @client_cert, align 8, !tbaa !4
  %94 = call i32 @OSSL_CMP_CTX_set1_oldCert(ptr noundef %92, ptr noundef %93)
  %95 = icmp ne i32 %94, 0
  br i1 %95, label %96, label %110

96:                                               ; preds = %91
  %97 = load ptr, ptr %6, align 8, !tbaa !30
  %98 = load ptr, ptr @client_key, align 8, !tbaa !9
  %99 = call i32 @OSSL_CMP_CTX_set1_pkey(ptr noundef %97, ptr noundef %98)
  %100 = icmp ne i32 %99, 0
  br i1 %100, label %101, label %110

101:                                              ; preds = %96
  %102 = load ptr, ptr %6, align 8, !tbaa !30
  %103 = load ptr, ptr @server_cert, align 8, !tbaa !4
  %104 = call i32 @OSSL_CMP_CTX_set1_srvCert(ptr noundef %102, ptr noundef %103)
  %105 = icmp ne i32 %104, 0
  br i1 %105, label %106, label %110

106:                                              ; preds = %101
  %107 = load ptr, ptr %6, align 8, !tbaa !30
  %108 = call i32 @OSSL_CMP_CTX_set1_referenceValue(ptr noundef %107, ptr noundef @ref, i32 noundef 15)
  %109 = icmp ne i32 %108, 0
  br i1 %109, label %111, label %110

110:                                              ; preds = %106, %101, %96, %91, %87, %83, %76, %72, %66, %59
  br label %115

111:                                              ; preds = %106
  %112 = load ptr, ptr %4, align 8, !tbaa !17
  %113 = getelementptr inbounds nuw %struct.test_fixture, ptr %112, i32 0, i32 3
  store i32 -1, ptr %113, align 8, !tbaa !27
  %114 = load ptr, ptr %4, align 8, !tbaa !17
  store ptr %114, ptr %2, align 8
  store i32 1, ptr %7, align 4
  br label %117

115:                                              ; preds = %110, %58
  %116 = load ptr, ptr %4, align 8, !tbaa !17
  call void @tear_down(ptr noundef %116)
  store ptr null, ptr %2, align 8
  store i32 1, ptr %7, align 4
  br label %117

117:                                              ; preds = %115, %111, %11
  call void @llvm.lifetime.end.p0(i64 8, ptr %6) #4
  call void @llvm.lifetime.end.p0(i64 8, ptr %5) #4
  call void @llvm.lifetime.end.p0(i64 8, ptr %4) #4
  %118 = load ptr, ptr %2, align 8
  ret ptr %118
}