; Function Attrs: nounwind uwtable
define internal fastcc noundef ptr @set_up(ptr noundef %0) unnamed_addr #0 {
  %2 = tail call noalias ptr @CRYPTO_zalloc(i64 noundef 40, ptr noundef nonnull @.str.14, i32 noundef 60) #4
  %3 = tail call i32 @test_ptr(ptr noundef nonnull @.str.14, i32 noundef 60, ptr noundef nonnull @.str.55, ptr noundef %2) #4
  %.not = icmp eq i32 %3, 0
  br i1 %.not, label %66, label %4

4:                                                ; preds = %1
  store ptr %0, ptr %2, align 8, !tbaa !27
  %5 = load ptr, ptr @libctx, align 8, !tbaa !13
  %6 = tail call ptr @ossl_cmp_mock_srv_new(ptr noundef %5, ptr noundef null) #4
  %7 = getelementptr inbounds nuw i8, ptr %2, i64 16
  store ptr %6, ptr %7, align 8, !tbaa !24
  %8 = tail call i32 @test_ptr(ptr noundef nonnull @.str.14, i32 noundef 63, ptr noundef nonnull @.str.56, ptr noundef %6) #4
  %.not25 = icmp eq i32 %8, 0
  br i1 %.not25, label %60, label %9

9:                                                ; preds = %4
  %10 = load ptr, ptr %7, align 8, !tbaa !24
  %11 = tail call i32 @OSSL_CMP_SRV_CTX_set_accept_unprotected(ptr noundef %10, i32 noundef 1) #4
  %.not26 = icmp eq i32 %11, 0
  br i1 %.not26, label %60, label %12

12:                                               ; preds = %9
  %13 = load ptr, ptr %7, align 8, !tbaa !24
  %14 = load ptr, ptr @client_cert, align 8, !tbaa !4
  %15 = tail call i32 @ossl_cmp_mock_srv_set1_refCert(ptr noundef %13, ptr noundef %14) #4
  %.not27 = icmp eq i32 %15, 0
  br i1 %.not27, label %60, label %16

16:                                               ; preds = %12
  %17 = load ptr, ptr %7, align 8, !tbaa !24
  %18 = load ptr, ptr @client_cert, align 8, !tbaa !4
  %19 = tail call i32 @ossl_cmp_mock_srv_set1_certOut(ptr noundef %17, ptr noundef %18) #4
  %.not28 = icmp eq i32 %19, 0
  br i1 %.not28, label %60, label %20

20:                                               ; preds = %16
  %21 = load ptr, ptr %7, align 8, !tbaa !24
  %22 = tail call ptr @OSSL_CMP_SRV_CTX_get0_cmp_ctx(ptr noundef %21) #4
  %23 = icmp eq ptr %22, null
  br i1 %23, label %60, label %24

24:                                               ; preds = %20
  %25 = load ptr, ptr @server_cert, align 8, !tbaa !4
  %26 = tail call i32 @OSSL_CMP_CTX_set1_cert(ptr noundef nonnull %22, ptr noundef %25) #4
  %.not29 = icmp eq i32 %26, 0
  br i1 %.not29, label %60, label %27

27:                                               ; preds = %24
  %28 = load ptr, ptr @server_key, align 8, !tbaa !9
  %29 = tail call i32 @OSSL_CMP_CTX_set1_pkey(ptr noundef nonnull %22, ptr noundef %28) #4
  %.not30 = icmp eq i32 %29, 0
  br i1 %.not30, label %60, label %30

30:                                               ; preds = %27
  %31 = load ptr, ptr @libctx, align 8, !tbaa !13
  %32 = tail call ptr @OSSL_CMP_CTX_new(ptr noundef %31, ptr noundef null) #4
  %33 = getelementptr inbounds nuw i8, ptr %2, i64 8
  store ptr %32, ptr %33, align 8, !tbaa !23
  %34 = tail call i32 @test_ptr(ptr noundef nonnull @.str.14, i32 noundef 72, ptr noundef nonnull @.str.57, ptr noundef %32) #4
  %.not31 = icmp eq i32 %34, 0
  br i1 %.not31, label %60, label %35

35:                                               ; preds = %30
  %36 = load ptr, ptr %33, align 8, !tbaa !23
  %37 = tail call i32 @OSSL_CMP_CTX_set_log_cb(ptr noundef %36, ptr noundef nonnull @print_to_bio_out) #4
  %.not32 = icmp eq i32 %37, 0
  br i1 %.not32, label %60, label %38

38:                                               ; preds = %35
  %39 = tail call i32 @OSSL_CMP_CTX_set_transfer_cb(ptr noundef %32, ptr noundef nonnull @OSSL_CMP_CTX_server_perform) #4
  %.not33 = icmp eq i32 %39, 0
  br i1 %.not33, label %60, label %40

40:                                               ; preds = %38
  %41 = load ptr, ptr %7, align 8, !tbaa !24
  %42 = tail call i32 @OSSL_CMP_CTX_set_transfer_cb_arg(ptr noundef %32, ptr noundef %41) #4
  %.not34 = icmp eq i32 %42, 0
  br i1 %.not34, label %60, label %43

43:                                               ; preds = %40
  %44 = tail call i32 @OSSL_CMP_CTX_set_option(ptr noundef %32, i32 noundef 30, i32 noundef 1) #4
  %.not35 = icmp eq i32 %44, 0
  br i1 %.not35, label %60, label %45

45:                                               ; preds = %43
  %46 = tail call i32 @OSSL_CMP_CTX_set_option(ptr noundef %32, i32 noundef 31, i32 noundef 1) #4
  %.not36 = icmp eq i32 %46, 0
  br i1 %.not36, label %60, label %47

47:                                               ; preds = %45
  %48 = load ptr, ptr @client_cert, align 8, !tbaa !4
  %49 = tail call i32 @OSSL_CMP_CTX_set1_oldCert(ptr noundef %32, ptr noundef %48) #4
  %.not37 = icmp eq i32 %49, 0
  br i1 %.not37, label %60, label %50

50:                                               ; preds = %47
  %51 = load ptr, ptr @client_key, align 8, !tbaa !9
  %52 = tail call i32 @OSSL_CMP_CTX_set1_pkey(ptr noundef %32, ptr noundef %51) #4
  %.not38 = icmp eq i32 %52, 0
  br i1 %.not38, label %60, label %53

53:                                               ; preds = %50
  %54 = load ptr, ptr @server_cert, align 8, !tbaa !4
  %55 = tail call i32 @OSSL_CMP_CTX_set1_srvCert(ptr noundef %32, ptr noundef %54) #4
  %.not39 = icmp eq i32 %55, 0
  br i1 %.not39, label %60, label %56

56:                                               ; preds = %53
  %57 = tail call i32 @OSSL_CMP_CTX_set1_referenceValue(ptr noundef %32, ptr noundef nonnull @ref, i32 noundef 15) #4
  %.not40 = icmp eq i32 %57, 0
  br i1 %.not40, label %60, label %58

58:                                               ; preds = %56
  %59 = getelementptr inbounds nuw i8, ptr %2, i64 24
  store i32 -1, ptr %59, align 8, !tbaa !26
  br label %66

60:                                               ; preds = %30, %35, %38, %40, %43, %45, %47, %50, %53, %56, %4, %9, %12, %16, %20, %24, %27
  %61 = getelementptr inbounds nuw i8, ptr %2, i64 8
  %62 = load ptr, ptr %61, align 8, !tbaa !23
  tail call void @OSSL_CMP_CTX_free(ptr noundef %62) #4
  %63 = load ptr, ptr %7, align 8, !tbaa !24
  tail call void @ossl_cmp_mock_srv_free(ptr noundef %63) #4
  %64 = getelementptr inbounds nuw i8, ptr %2, i64 32
  %65 = load ptr, ptr %64, align 8, !tbaa !25
  tail call void @OPENSSL_sk_free(ptr noundef %65) #4
  tail call void @CRYPTO_free(ptr noundef nonnull %2, ptr noundef nonnull @.str.14, i32 noundef 51) #4
  br label %66

66:                                               ; preds = %1, %60, %58
  %.0 = phi ptr [ null, %60 ], [ %2, %58 ], [ null, %1 ]
  ret ptr %.0
}